target datalayout = "e-m:e-p270:32:32-p271:32:32-p272:64:64-i64:64-i128:128-f80:128-n8:16:32:64-S128"
target triple = "x86_64-pc-linux-gnu"

@g_assert_poison = external global ptr, align 8
@.str.6 = private unnamed_addr constant [43 x i8] c"src/hotspot/share/runtime/synchronizer.cpp\00", align 1
@.str.23 = private unnamed_addr constant [12 x i8] c"VM Internal\00", align 1
@.str.24 = private unnamed_addr constant [14 x i8] c"Monitor Enter\00", align 1
@.str.25 = private unnamed_addr constant [13 x i8] c"Monitor Wait\00", align 1
@.str.26 = private unnamed_addr constant [15 x i8] c"Monitor Notify\00", align 1
@.str.27 = private unnamed_addr constant [18 x i8] c"Monitor Hash Code\00", align 1
@.str.28 = private unnamed_addr constant [18 x i8] c"JNI Monitor Enter\00", align 1
@.str.29 = private unnamed_addr constant [17 x i8] c"JNI Monitor Exit\00", align 1
@.str.30 = private unnamed_addr constant [8 x i8] c"Unknown\00", align 1

; Function Attrs: mustprogress nounwind uwtable
define hidden noundef ptr @_ZN18ObjectSynchronizer18inflate_cause_nameENS_12InflateCauseE(i32 noundef %0) #1 align 2 {
  %2 = alloca ptr, align 8
  %3 = alloca i32, align 4
  store i32 %0, ptr %3, align 4
  %4 = load i32, ptr %3, align 4
  switch i32 %4, label %12 [
    i32 0, label %5
    i32 1, label %6
    i32 2, label %7
    i32 3, label %8
    i32 4, label %9
    i32 5, label %10
    i32 6, label %11
  ]

5:                                                ; preds = %1
  store ptr @.str.23, ptr %2, align 8
  br label %17

6:                                                ; preds = %1
  store ptr @.str.24, ptr %2, align 8
  br label %17

7:                                                ; preds = %1
  store ptr @.str.25, ptr %2, align 8
  br label %17

8:                                                ; preds = %1
  store ptr @.str.26, ptr %2, align 8
  br label %17

9:                                                ; preds = %1
  store ptr @.str.27, ptr %2, align 8
  br label %17

10:                                               ; preds = %1
  store ptr @.str.28, ptr %2, align 8
  br label %17

11:                                               ; preds = %1
  store ptr @.str.29, ptr %2, align 8
  br label %17

12:                                               ; preds = %1
  br label %13

13:                                               ; preds = %12
  %14 = load ptr, ptr @g_assert_poison, align 8
  store i8 88, ptr %14, align 1
  call void @_Z28report_should_not_reach_herePKci(ptr noundef @.str.6, i32 noundef 1929) #12
  unreachable

15:                                               ; No predecessors!
  br label %16

16:                                               ; preds = %15
  store ptr @.str.30, ptr %2, align 8
  br label %17

17:                                               ; preds = %16, %11, %10, %9, %8, %7, %6, %5
  %18 = load ptr, ptr %2, align 8
  ret ptr %18
}